; Function Attrs: mustprogress uwtable
define hidden void @_ZN3mbp14project_plugin8mark_recER8obj_markI4expr10bit_vector14default_t2uintIS2_EERK10ref_vectorIS2_11ast_managerE(ptr noundef nonnull align 8 dereferenceable(24) %0, ptr noundef nonnull readonly align 8 captures(none) dereferenceable(16) %1) local_unnamed_addr #3 align 2 {
  %3 = alloca %struct.for_each_expr_proc, align 1
  %4 = getelementptr inbounds nuw i8, ptr %1, i64 8
  %5 = load ptr, ptr %4, align 8, !tbaa !3
  %6 = icmp eq ptr %5, null
  br i1 %6, label %._crit_edge, label %_ZNK15ref_vector_coreI4expr19ref_manager_wrapperIS0_11ast_managerEE3endEv.exit

_ZNK15ref_vector_coreI4expr19ref_manager_wrapperIS0_11ast_managerEE3endEv.exit: ; preds = %2
  %7 = getelementptr inbounds i8, ptr %5, i64 -4
  %8 = load i32, ptr %7, align 4, !tbaa !10
  %9 = zext i32 %8 to i64
  %10 = getelementptr inbounds nuw ptr, ptr %5, i64 %9
  %.not9 = icmp eq i32 %8, 0
  br i1 %.not9, label %._crit_edge, label %.lr.ph

._crit_edge:                                      ; preds = %.lr.ph, %2, %_ZNK15ref_vector_coreI4expr19ref_manager_wrapperIS0_11ast_managerEE3endEv.exit
  ret void

.lr.ph:                                           ; preds = %_ZNK15ref_vector_coreI4expr19ref_manager_wrapperIS0_11ast_managerEE3endEv.exit, %.lr.ph
  %.010 = phi ptr [ %12, %.lr.ph ], [ %5, %_ZNK15ref_vector_coreI4expr19ref_manager_wrapperIS0_11ast_managerEE3endEv.exit ]
  %11 = load ptr, ptr %.010, align 8, !tbaa !12
  call void @llvm.lifetime.start.p0(i64 1, ptr nonnull %3) #19
  call void @_Z18for_each_expr_coreI18for_each_expr_procIN3mbp12noop_op_procEE8obj_markI4expr10bit_vector14default_t2uintIS5_EELb1ELb0EEvRT_RT0_PS5_(ptr noundef nonnull align 1 dereferenceable(1) %3, ptr noundef nonnull align 8 dereferenceable(24) %0, ptr noundef %11)
  call void @llvm.lifetime.end.p0(i64 1, ptr nonnull %3) #19
  %12 = getelementptr inbounds nuw i8, ptr %.010, i64 8
  %.not = icmp eq ptr %12, %10
  br i1 %.not, label %._crit_edge, label %.lr.ph
}